target datalayout = "e-m:e-p270:32:32-p271:32:32-p272:64:64-i64:64-i128:128-f80:128-n8:16:32:64-S128"
target triple = "x86_64-pc-linux-gnu"

%struct.__sigset_t = type { [16 x i64] }

@_ZN13SubprocessSet12interrupted_E = dso_local global i32 0, align 4
@.str.16 = private unnamed_addr constant [18 x i8] c"ninja: sigpending\00", align 1

; Function Attrs: mustprogress uwtable
define dso_local void @_ZN13SubprocessSet25HandlePendingInterruptionEv() #3 align 2 {
  %1 = alloca %struct.__sigset_t, align 8
  %2 = alloca i32, align 4
  call void @llvm.lifetime.start.p0(i64 128, ptr %1) #16
  %3 = call i32 @sigemptyset(ptr noundef %1) #16
  %4 = call i32 @sigpending(ptr noundef %1) #16
  %5 = icmp eq i32 %4, -1
  br i1 %5, label %6, label %7

6:                                                ; preds = %0
  call void @perror(ptr noundef @.str.16)
  store i32 1, ptr %2, align 4
  br label %22

7:                                                ; preds = %0
  %8 = call i32 @sigismember(ptr noundef %1, i32 noundef 2) #16
  %9 = icmp ne i32 %8, 0
  br i1 %9, label %10, label %11

10:                                               ; preds = %7
  store i32 2, ptr @_ZN13SubprocessSet12interrupted_E, align 4, !tbaa !24
  br label %21

11:                                               ; preds = %7
  %12 = call i32 @sigismember(ptr noundef %1, i32 noundef 15) #16
  %13 = icmp ne i32 %12, 0
  br i1 %13, label %14, label %15

14:                                               ; preds = %11
  store i32 15, ptr @_ZN13SubprocessSet12interrupted_E, align 4, !tbaa !24
  br label %20

15:                                               ; preds = %11
  %16 = call i32 @sigismember(ptr noundef %1, i32 noundef 1) #16
  %17 = icmp ne i32 %16, 0
  br i1 %17, label %18, label %19

18:                                               ; preds = %15
  store i32 1, ptr @_ZN13SubprocessSet12interrupted_E, align 4, !tbaa !24
  br label %19

19:                                               ; preds = %18, %15
  br label %20

20:                                               ; preds = %19, %14
  br label %21

21:                                               ; preds = %20, %10
  store i32 0, ptr %2, align 4
  br label %22

22:                                               ; preds = %21, %6
  call void @llvm.lifetime.end.p0(i64 128, ptr %1) #16
  %23 = load i32, ptr %2, align 4
  switch i32 %23, label %25 [
    i32 0, label %24
    i32 1, label %24
  ]

24:                                               ; preds = %22, %22
  ret void

25:                                               ; preds = %22
  unreachable
}