; Function Attrs: mustprogress nounwind uwtable
define dso_local void @_ZN13SubprocessSet25HandlePendingInterruptionEv() local_unnamed_addr #1 align 2 {
  %1 = alloca %struct.__sigset_t, align 8
  call void @llvm.lifetime.start.p0(i64 128, ptr nonnull %1) #22
  %2 = call i32 @sigemptyset(ptr noundef nonnull %1) #22
  %3 = call i32 @sigpending(ptr noundef nonnull %1) #22
  %4 = icmp eq i32 %3, -1
  br i1 %4, label %5, label %6

5:                                                ; preds = %0
  call void @perror(ptr noundef nonnull @.str.16) #27
  br label %15

6:                                                ; preds = %0
  %7 = call i32 @sigismember(ptr noundef nonnull %1, i32 noundef 2) #22
  %.not = icmp eq i32 %7, 0
  br i1 %.not, label %9, label %8

8:                                                ; preds = %6
  store i32 2, ptr @_ZN13SubprocessSet12interrupted_E, align 4, !tbaa !20
  br label %15

9:                                                ; preds = %6
  %10 = call i32 @sigismember(ptr noundef nonnull %1, i32 noundef 15) #22
  %.not1 = icmp eq i32 %10, 0
  br i1 %.not1, label %12, label %11

11:                                               ; preds = %9
  store i32 15, ptr @_ZN13SubprocessSet12interrupted_E, align 4, !tbaa !20
  br label %15

12:                                               ; preds = %9
  %13 = call i32 @sigismember(ptr noundef nonnull %1, i32 noundef 1) #22
  %.not2 = icmp eq i32 %13, 0
  br i1 %.not2, label %15, label %14

14:                                               ; preds = %12
  store i32 1, ptr @_ZN13SubprocessSet12interrupted_E, align 4, !tbaa !20
  br label %15

15:                                               ; preds = %8, %12, %14, %11, %5
  call void @llvm.lifetime.end.p0(i64 128, ptr nonnull %1) #22
  ret void
}